; Function Attrs: mustprogress uwtable
define hidden noundef ptr @_ZN3smt11farkas_util6mk_oneEv(ptr noundef nonnull align 8 dereferenceable(128) %0) local_unnamed_addr #3 align 2 personality ptr @__gxx_personality_v0 {
  %2 = alloca %class.rational, align 8
  call void @llvm.lifetime.start.p0(i64 32, ptr nonnull %2) #19
  %3 = getelementptr inbounds nuw i8, ptr %2, i64 4
  %4 = getelementptr inbounds nuw i8, ptr %2, i64 8
  store ptr null, ptr %4, align 8, !tbaa !8
  %5 = getelementptr inbounds nuw i8, ptr %2, i64 16
  store i32 1, ptr %5, align 8, !tbaa !12
  %6 = getelementptr inbounds nuw i8, ptr %2, i64 20
  store i8 0, ptr %6, align 4
  %7 = getelementptr inbounds nuw i8, ptr %2, i64 24
  store ptr null, ptr %7, align 8, !tbaa !8
  %8 = load ptr, ptr @_ZN8rational13g_mpq_managerE, align 8, !tbaa !55
  store i32 1, ptr %2, align 8, !tbaa !12
  store i8 0, ptr %3, align 4
  call void @_ZN11mpz_managerILb1EE3delEPS0_R3mpz(ptr noundef nonnull align 8 dereferenceable(728) %8, ptr noundef nonnull align 8 dereferenceable(16) %5)
  store i32 1, ptr %5, align 8, !tbaa !12
  %9 = load i8, ptr %6, align 4
  %10 = and i8 %9, -2
  store i8 %10, ptr %6, align 4
  %11 = getelementptr inbounds nuw i8, ptr %0, i64 16
  %12 = load ptr, ptr %11, align 8, !tbaa !49
  %.not.i.i = icmp eq ptr %12, null
  br i1 %.not.i.i, label %13, label %_ZNK10arith_util6pluginEv.exit.i

13:                                               ; preds = %1
  %14 = getelementptr inbounds nuw i8, ptr %0, i64 8
  invoke void @_ZN10arith_util11init_pluginEv(ptr noundef nonnull align 8 dereferenceable(16) %14)
          to label %.noexc unwind label %21

.noexc:                                           ; preds = %13
  %.pre.i.i = load ptr, ptr %11, align 8, !tbaa !49
  br label %_ZNK10arith_util6pluginEv.exit.i

_ZNK10arith_util6pluginEv.exit.i:                 ; preds = %.noexc, %1
  %15 = phi ptr [ %.pre.i.i, %.noexc ], [ %12, %1 ]
  %16 = invoke noundef ptr @_ZN17arith_decl_plugin10mk_numeralERK8rationalb(ptr noundef nonnull align 8 dereferenceable(441) %15, ptr noundef nonnull align 8 dereferenceable(32) %2, i1 noundef zeroext true)
          to label %_ZNK10arith_util10mk_numeralERK8rationalb.exit unwind label %21

_ZNK10arith_util10mk_numeralERK8rationalb.exit:   ; preds = %_ZNK10arith_util6pluginEv.exit.i
  %17 = load ptr, ptr @_ZN8rational13g_mpq_managerE, align 8, !tbaa !55
  invoke void @_ZN11mpz_managerILb1EE3delEPS0_R3mpz(ptr noundef %17, ptr noundef nonnull align 8 dereferenceable(32) %2)
          to label %.noexc.i unwind label %18

.noexc.i:                                         ; preds = %_ZNK10arith_util10mk_numeralERK8rationalb.exit
  invoke void @_ZN11mpz_managerILb1EE3delEPS0_R3mpz(ptr noundef %17, ptr noundef nonnull align 8 dereferenceable(16) %5)
          to label %_ZN8rationalD2Ev.exit unwind label %18

18:                                               ; preds = %.noexc.i, %_ZNK10arith_util10mk_numeralERK8rationalb.exit
  %19 = landingpad { ptr, i32 }
          catch ptr null
  %20 = extractvalue { ptr, i32 } %19, 0
  call void @__clang_call_terminate(ptr %20) #20
  unreachable

_ZN8rationalD2Ev.exit:                            ; preds = %.noexc.i
  call void @llvm.lifetime.end.p0(i64 32, ptr nonnull %2) #19
  ret ptr %16

21:                                               ; preds = %_ZNK10arith_util6pluginEv.exit.i, %13
  %22 = landingpad { ptr, i32 }
          cleanup
  call void @_ZN8rationalD2Ev(ptr noundef nonnull align 8 dereferenceable(32) %2) #19
  call void @llvm.lifetime.end.p0(i64 32, ptr nonnull %2) #19
  resume { ptr, i32 } %22
}